; Function Attrs: nounwind uwtable
define hidden void @zim_DirectoryIterator_rewind(ptr nocapture noundef readonly %0, ptr nocapture readnone %1) #0 {
  %3 = getelementptr inbounds i8, ptr %0, i64 32
  %4 = load ptr, ptr %3, align 8
  %5 = getelementptr inbounds i8, ptr %0, i64 44
  %6 = load i32, ptr %5, align 4
  %.not = icmp eq i32 %6, 0
  br i1 %.not, label %.critedge, label %7

7:                                                ; preds = %2
  tail call void @zend_wrong_parameters_none_error() #18
  %8 = load ptr, ptr getelementptr inbounds (%struct._zend_executor_globals, ptr @executor_globals, i64 0, i32 50), align 8
  %9 = icmp ne ptr %8, null
  tail call void @llvm.assume(i1 %9)
  br label %spl_filesystem_dir_read.exit

.critedge:                                        ; preds = %2
  %10 = getelementptr inbounds i8, ptr %4, i64 -312
  %11 = load ptr, ptr %10, align 8
  %.not6 = icmp eq ptr %11, null
  br i1 %.not6, label %12, label %15

12:                                               ; preds = %.critedge
  tail call void (ptr, ptr, ...) @zend_throw_error(ptr noundef null, ptr noundef nonnull @.str) #18
  %13 = load ptr, ptr getelementptr inbounds (%struct._zend_executor_globals, ptr @executor_globals, i64 0, i32 50), align 8
  %14 = icmp ne ptr %13, null
  tail call void @llvm.assume(i1 %14)
  br label %spl_filesystem_dir_read.exit

15:                                               ; preds = %.critedge
  %16 = getelementptr inbounds i8, ptr %4, i64 -296
  store i32 0, ptr %16, align 8
  %17 = tail call i32 @_php_stream_seek(ptr noundef nonnull %11, i64 noundef 0, i32 noundef 0) #18
  %18 = getelementptr inbounds i8, ptr %4, i64 -352
  %19 = load ptr, ptr %18, align 8
  %.not.i = icmp eq ptr %19, null
  br i1 %.not.i, label %34, label %20

20:                                               ; preds = %15
  %21 = getelementptr inbounds i8, ptr %19, i64 4
  %22 = load i32, ptr %21, align 4
  %23 = and i32 %22, 64
  %.not18.i = icmp eq i32 %23, 0
  br i1 %.not18.i, label %24, label %33

24:                                               ; preds = %20
  %25 = load i32, ptr %19, align 4
  %26 = icmp ne i32 %25, 0
  tail call void @llvm.assume(i1 %26)
  %27 = add i32 %25, -1
  store i32 %27, ptr %19, align 4
  %28 = icmp eq i32 %27, 0
  br i1 %28, label %29, label %33

29:                                               ; preds = %24
  %30 = and i32 %22, 128
  %.not19.i = icmp eq i32 %30, 0
  br i1 %.not19.i, label %32, label %31

31:                                               ; preds = %29
  tail call void @free(ptr noundef nonnull %19) #18
  br label %33

32:                                               ; preds = %29
  tail call void @_efree(ptr noundef nonnull %19) #18
  br label %33

33:                                               ; preds = %32, %31, %24, %20
  store ptr null, ptr %18, align 8
  br label %34

34:                                               ; preds = %33, %15
  %35 = load ptr, ptr %10, align 8
  %.not20.i = icmp eq ptr %35, null
  br i1 %.not20.i, label %39, label %36

36:                                               ; preds = %34
  %37 = getelementptr inbounds i8, ptr %4, i64 -264
  %38 = tail call ptr @_php_stream_readdir(ptr noundef nonnull %35, ptr noundef nonnull %37) #18
  %.not21.i = icmp eq ptr %38, null
  br i1 %.not21.i, label %39, label %spl_filesystem_dir_read.exit

39:                                               ; preds = %36, %34
  %40 = getelementptr inbounds i8, ptr %4, i64 -264
  store i8 0, ptr %40, align 8
  br label %spl_filesystem_dir_read.exit

spl_filesystem_dir_read.exit:                     ; preds = %39, %36, %12, %7
  ret void
}